
Master_I2C.elf:     file format elf32-avr

Sections:
Idx Name          Size      VMA       LMA       File off  Algn
  0 .data         00000008  00800100  00000394  00000428  2**0
                  CONTENTS, ALLOC, LOAD, DATA
  1 .text         00000394  00000000  00000000  00000094  2**1
                  CONTENTS, ALLOC, LOAD, READONLY, CODE
  2 .bss          00000002  00800108  00800108  00000430  2**0
                  ALLOC
  3 .comment      00000030  00000000  00000000  00000430  2**0
                  CONTENTS, READONLY
  4 .note.gnu.avr.deviceinfo 0000003c  00000000  00000000  00000460  2**2
                  CONTENTS, READONLY
  5 .debug_aranges 00000078  00000000  00000000  0000049c  2**0
                  CONTENTS, READONLY, DEBUGGING
  6 .debug_info   00000c37  00000000  00000000  00000514  2**0
                  CONTENTS, READONLY, DEBUGGING
  7 .debug_abbrev 000007b1  00000000  00000000  0000114b  2**0
                  CONTENTS, READONLY, DEBUGGING
  8 .debug_line   000006a7  00000000  00000000  000018fc  2**0
                  CONTENTS, READONLY, DEBUGGING
  9 .debug_frame  000000ec  00000000  00000000  00001fa4  2**2
                  CONTENTS, READONLY, DEBUGGING
 10 .debug_str    00000546  00000000  00000000  00002090  2**0
                  CONTENTS, READONLY, DEBUGGING
 11 .debug_loc    000005be  00000000  00000000  000025d6  2**0
                  CONTENTS, READONLY, DEBUGGING
 12 .debug_ranges 00000068  00000000  00000000  00002b94  2**0
                  CONTENTS, READONLY, DEBUGGING

Disassembly of section .text:

00000000 <__vectors>:
   0:	0c 94 34 00 	jmp	0x68	; 0x68 <__ctors_end>
   4:	0c 94 51 00 	jmp	0xa2	; 0xa2 <__bad_interrupt>
   8:	0c 94 51 00 	jmp	0xa2	; 0xa2 <__bad_interrupt>
   c:	0c 94 51 00 	jmp	0xa2	; 0xa2 <__bad_interrupt>
  10:	0c 94 51 00 	jmp	0xa2	; 0xa2 <__bad_interrupt>
  14:	0c 94 51 00 	jmp	0xa2	; 0xa2 <__bad_interrupt>
  18:	0c 94 51 00 	jmp	0xa2	; 0xa2 <__bad_interrupt>
  1c:	0c 94 51 00 	jmp	0xa2	; 0xa2 <__bad_interrupt>
  20:	0c 94 51 00 	jmp	0xa2	; 0xa2 <__bad_interrupt>
  24:	0c 94 51 00 	jmp	0xa2	; 0xa2 <__bad_interrupt>
  28:	0c 94 51 00 	jmp	0xa2	; 0xa2 <__bad_interrupt>
  2c:	0c 94 51 00 	jmp	0xa2	; 0xa2 <__bad_interrupt>
  30:	0c 94 51 00 	jmp	0xa2	; 0xa2 <__bad_interrupt>
  34:	0c 94 51 00 	jmp	0xa2	; 0xa2 <__bad_interrupt>
  38:	0c 94 51 00 	jmp	0xa2	; 0xa2 <__bad_interrupt>
  3c:	0c 94 51 00 	jmp	0xa2	; 0xa2 <__bad_interrupt>
  40:	0c 94 51 00 	jmp	0xa2	; 0xa2 <__bad_interrupt>
  44:	0c 94 51 00 	jmp	0xa2	; 0xa2 <__bad_interrupt>
  48:	0c 94 51 00 	jmp	0xa2	; 0xa2 <__bad_interrupt>
  4c:	0c 94 51 00 	jmp	0xa2	; 0xa2 <__bad_interrupt>
  50:	0c 94 51 00 	jmp	0xa2	; 0xa2 <__bad_interrupt>
  54:	0c 94 51 00 	jmp	0xa2	; 0xa2 <__bad_interrupt>
  58:	0c 94 51 00 	jmp	0xa2	; 0xa2 <__bad_interrupt>
  5c:	0c 94 51 00 	jmp	0xa2	; 0xa2 <__bad_interrupt>
  60:	0c 94 51 00 	jmp	0xa2	; 0xa2 <__bad_interrupt>
  64:	0c 94 51 00 	jmp	0xa2	; 0xa2 <__bad_interrupt>

00000068 <__ctors_end>:
  68:	11 24       	eor	r1, r1
  6a:	1f be       	out	0x3f, r1	; 63
  6c:	cf ef       	ldi	r28, 0xFF	; 255
  6e:	d8 e0       	ldi	r29, 0x08	; 8
  70:	de bf       	out	0x3e, r29	; 62
  72:	cd bf       	out	0x3d, r28	; 61

00000074 <__do_copy_data>:
  74:	11 e0       	ldi	r17, 0x01	; 1
  76:	a0 e0       	ldi	r26, 0x00	; 0
  78:	b1 e0       	ldi	r27, 0x01	; 1
  7a:	e4 e9       	ldi	r30, 0x94	; 148
  7c:	f3 e0       	ldi	r31, 0x03	; 3
  7e:	02 c0       	rjmp	.+4      	; 0x84 <__do_copy_data+0x10>
  80:	05 90       	lpm	r0, Z+
  82:	0d 92       	st	X+, r0
  84:	a8 30       	cpi	r26, 0x08	; 8
  86:	b1 07       	cpc	r27, r17
  88:	d9 f7       	brne	.-10     	; 0x80 <__do_copy_data+0xc>

0000008a <__do_clear_bss>:
  8a:	21 e0       	ldi	r18, 0x01	; 1
  8c:	a8 e0       	ldi	r26, 0x08	; 8
  8e:	b1 e0       	ldi	r27, 0x01	; 1
  90:	01 c0       	rjmp	.+2      	; 0x94 <.do_clear_bss_start>

00000092 <.do_clear_bss_loop>:
  92:	1d 92       	st	X+, r1

00000094 <.do_clear_bss_start>:
  94:	aa 30       	cpi	r26, 0x0A	; 10
  96:	b2 07       	cpc	r27, r18
  98:	e1 f7       	brne	.-8      	; 0x92 <.do_clear_bss_loop>
  9a:	0e 94 33 01 	call	0x266	; 0x266 <main>
  9e:	0c 94 c8 01 	jmp	0x390	; 0x390 <_exit>

000000a2 <__bad_interrupt>:
  a2:	0c 94 00 00 	jmp	0	; 0x0 <__vectors>

000000a6 <_Z10I2C_statusv>:
	//PORTC |= (1<<0);//<================LED			IDK why mais en write mode, il veut juste pas faire un stop condition
}
void TWIRepeat(void){
	TWCR = (1<<TWINT) | (1<<TWSTA) | (1<<TWEN);
	while(TWCR & (1<<TWSTA));
}
  a6:	80 91 b9 00 	lds	r24, 0x00B9	; 0x8000b9 <__TEXT_REGION_LENGTH__+0x7f80b9>
  aa:	88 7f       	andi	r24, 0xF8	; 248
  ac:	08 95       	ret

000000ae <_Z7TWIInitv>:
  ae:	10 92 b9 00 	sts	0x00B9, r1	; 0x8000b9 <__TEXT_REGION_LENGTH__+0x7f80b9>
  b2:	8a e0       	ldi	r24, 0x0A	; 10
  b4:	80 93 b8 00 	sts	0x00B8, r24	; 0x8000b8 <__TEXT_REGION_LENGTH__+0x7f80b8>
  b8:	84 e8       	ldi	r24, 0x84	; 132
  ba:	80 93 bc 00 	sts	0x00BC, r24	; 0x8000bc <__TEXT_REGION_LENGTH__+0x7f80bc>
  be:	08 95       	ret

000000c0 <_Z5Blinkv>:
  c0:	80 e0       	ldi	r24, 0x00	; 0
  c2:	90 e0       	ldi	r25, 0x00	; 0
  c4:	82 30       	cpi	r24, 0x02	; 2
  c6:	91 05       	cpc	r25, r1
  c8:	04 f5       	brge	.+64     	; 0x10a <_Z5Blinkv+0x4a>
  ca:	28 b1       	in	r18, 0x08	; 8
  cc:	21 60       	ori	r18, 0x01	; 1
  ce:	28 b9       	out	0x08, r18	; 8
  d0:	28 b1       	in	r18, 0x08	; 8
  d2:	22 60       	ori	r18, 0x02	; 2
  d4:	28 b9       	out	0x08, r18	; 8
  d6:	2f e3       	ldi	r18, 0x3F	; 63
  d8:	3d e0       	ldi	r19, 0x0D	; 13
  da:	43 e0       	ldi	r20, 0x03	; 3
  dc:	21 50       	subi	r18, 0x01	; 1
  de:	30 40       	sbci	r19, 0x00	; 0
  e0:	40 40       	sbci	r20, 0x00	; 0
  e2:	e1 f7       	brne	.-8      	; 0xdc <_Z5Blinkv+0x1c>
  e4:	00 c0       	rjmp	.+0      	; 0xe6 <_Z5Blinkv+0x26>
  e6:	00 00       	nop
  e8:	28 b1       	in	r18, 0x08	; 8
  ea:	2e 7f       	andi	r18, 0xFE	; 254
  ec:	28 b9       	out	0x08, r18	; 8
  ee:	28 b1       	in	r18, 0x08	; 8
  f0:	2d 7f       	andi	r18, 0xFD	; 253
  f2:	28 b9       	out	0x08, r18	; 8
  f4:	2f e3       	ldi	r18, 0x3F	; 63
  f6:	3d e0       	ldi	r19, 0x0D	; 13
  f8:	43 e0       	ldi	r20, 0x03	; 3
  fa:	21 50       	subi	r18, 0x01	; 1
  fc:	30 40       	sbci	r19, 0x00	; 0
  fe:	40 40       	sbci	r20, 0x00	; 0
 100:	e1 f7       	brne	.-8      	; 0xfa <_Z5Blinkv+0x3a>
 102:	00 c0       	rjmp	.+0      	; 0x104 <_Z5Blinkv+0x44>
 104:	00 00       	nop
 106:	01 96       	adiw	r24, 0x01	; 1
 108:	dd cf       	rjmp	.-70     	; 0xc4 <_Z5Blinkv+0x4>
 10a:	08 95       	ret

0000010c <_Z16TWISlave_Addressh>:
 10c:	cf 93       	push	r28
 10e:	c8 2f       	mov	r28, r24
 110:	84 ea       	ldi	r24, 0xA4	; 164
 112:	80 93 bc 00 	sts	0x00BC, r24	; 0x8000bc <__TEXT_REGION_LENGTH__+0x7f80bc>
 116:	80 91 bc 00 	lds	r24, 0x00BC	; 0x8000bc <__TEXT_REGION_LENGTH__+0x7f80bc>
 11a:	88 23       	and	r24, r24
 11c:	e4 f7       	brge	.-8      	; 0x116 <_Z16TWISlave_Addressh+0xa>
 11e:	0e 94 53 00 	call	0xa6	; 0xa6 <_Z10I2C_statusv>
 122:	88 30       	cpi	r24, 0x08	; 8
 124:	11 f0       	breq	.+4      	; 0x12a <_Z16TWISlave_Addressh+0x1e>
 126:	80 31       	cpi	r24, 0x10	; 16
 128:	21 f5       	brne	.+72     	; 0x172 <_Z16TWISlave_Addressh+0x66>
 12a:	c0 93 bb 00 	sts	0x00BB, r28	; 0x8000bb <__TEXT_REGION_LENGTH__+0x7f80bb>
 12e:	84 e8       	ldi	r24, 0x84	; 132
 130:	80 93 bc 00 	sts	0x00BC, r24	; 0x8000bc <__TEXT_REGION_LENGTH__+0x7f80bc>
 134:	80 91 bc 00 	lds	r24, 0x00BC	; 0x8000bc <__TEXT_REGION_LENGTH__+0x7f80bc>
 138:	88 23       	and	r24, r24
 13a:	e4 f7       	brge	.-8      	; 0x134 <_Z16TWISlave_Addressh+0x28>
 13c:	0e 94 53 00 	call	0xa6	; 0xa6 <_Z10I2C_statusv>
 140:	88 31       	cpi	r24, 0x18	; 24
 142:	d1 f0       	breq	.+52     	; 0x178 <_Z16TWISlave_Addressh+0x6c>
 144:	80 32       	cpi	r24, 0x20	; 32
 146:	d9 f0       	breq	.+54     	; 0x17e <_Z16TWISlave_Addressh+0x72>
 148:	80 34       	cpi	r24, 0x40	; 64
 14a:	e1 f0       	breq	.+56     	; 0x184 <_Z16TWISlave_Addressh+0x78>
 14c:	88 34       	cpi	r24, 0x48	; 72
 14e:	e9 f0       	breq	.+58     	; 0x18a <_Z16TWISlave_Addressh+0x7e>
 150:	88 33       	cpi	r24, 0x38	; 56
 152:	f1 f0       	breq	.+60     	; 0x190 <_Z16TWISlave_Addressh+0x84>
 154:	80 35       	cpi	r24, 0x50	; 80
 156:	f9 f0       	breq	.+62     	; 0x196 <_Z16TWISlave_Addressh+0x8a>
 158:	88 35       	cpi	r24, 0x58	; 88
 15a:	01 f1       	breq	.+64     	; 0x19c <_Z16TWISlave_Addressh+0x90>
 15c:	80 37       	cpi	r24, 0x70	; 112
 15e:	09 f1       	breq	.+66     	; 0x1a2 <_Z16TWISlave_Addressh+0x96>
 160:	88 37       	cpi	r24, 0x78	; 120
 162:	11 f1       	breq	.+68     	; 0x1a8 <_Z16TWISlave_Addressh+0x9c>
 164:	80 39       	cpi	r24, 0x90	; 144
 166:	19 f1       	breq	.+70     	; 0x1ae <_Z16TWISlave_Addressh+0xa2>
 168:	88 39       	cpi	r24, 0x98	; 152
 16a:	21 f5       	brne	.+72     	; 0x1b4 <_Z16TWISlave_Addressh+0xa8>
 16c:	85 e0       	ldi	r24, 0x05	; 5
 16e:	90 e0       	ldi	r25, 0x00	; 0
 170:	23 c0       	rjmp	.+70     	; 0x1b8 <_Z16TWISlave_Addressh+0xac>
 172:	80 e0       	ldi	r24, 0x00	; 0
 174:	90 e0       	ldi	r25, 0x00	; 0
 176:	20 c0       	rjmp	.+64     	; 0x1b8 <_Z16TWISlave_Addressh+0xac>
 178:	81 e0       	ldi	r24, 0x01	; 1
 17a:	90 e0       	ldi	r25, 0x00	; 0
 17c:	1d c0       	rjmp	.+58     	; 0x1b8 <_Z16TWISlave_Addressh+0xac>
 17e:	82 e0       	ldi	r24, 0x02	; 2
 180:	90 e0       	ldi	r25, 0x00	; 0
 182:	1a c0       	rjmp	.+52     	; 0x1b8 <_Z16TWISlave_Addressh+0xac>
 184:	83 e0       	ldi	r24, 0x03	; 3
 186:	90 e0       	ldi	r25, 0x00	; 0
 188:	17 c0       	rjmp	.+46     	; 0x1b8 <_Z16TWISlave_Addressh+0xac>
 18a:	84 e0       	ldi	r24, 0x04	; 4
 18c:	90 e0       	ldi	r25, 0x00	; 0
 18e:	14 c0       	rjmp	.+40     	; 0x1b8 <_Z16TWISlave_Addressh+0xac>
 190:	85 e0       	ldi	r24, 0x05	; 5
 192:	90 e0       	ldi	r25, 0x00	; 0
 194:	11 c0       	rjmp	.+34     	; 0x1b8 <_Z16TWISlave_Addressh+0xac>
 196:	85 e0       	ldi	r24, 0x05	; 5
 198:	90 e0       	ldi	r25, 0x00	; 0
 19a:	0e c0       	rjmp	.+28     	; 0x1b8 <_Z16TWISlave_Addressh+0xac>
 19c:	85 e0       	ldi	r24, 0x05	; 5
 19e:	90 e0       	ldi	r25, 0x00	; 0
 1a0:	0b c0       	rjmp	.+22     	; 0x1b8 <_Z16TWISlave_Addressh+0xac>
 1a2:	85 e0       	ldi	r24, 0x05	; 5
 1a4:	90 e0       	ldi	r25, 0x00	; 0
 1a6:	08 c0       	rjmp	.+16     	; 0x1b8 <_Z16TWISlave_Addressh+0xac>
 1a8:	85 e0       	ldi	r24, 0x05	; 5
 1aa:	90 e0       	ldi	r25, 0x00	; 0
 1ac:	05 c0       	rjmp	.+10     	; 0x1b8 <_Z16TWISlave_Addressh+0xac>
 1ae:	85 e0       	ldi	r24, 0x05	; 5
 1b0:	90 e0       	ldi	r25, 0x00	; 0
 1b2:	02 c0       	rjmp	.+4      	; 0x1b8 <_Z16TWISlave_Addressh+0xac>
 1b4:	86 e0       	ldi	r24, 0x06	; 6
 1b6:	90 e0       	ldi	r25, 0x00	; 0
 1b8:	cf 91       	pop	r28
 1ba:	08 95       	ret

000001bc <_Z20I2C_Master_Transmmitc>:
 1bc:	e7 ea       	ldi	r30, 0xA7	; 167
 1be:	f1 e6       	ldi	r31, 0x61	; 97
 1c0:	31 97       	sbiw	r30, 0x01	; 1
 1c2:	f1 f7       	brne	.-4      	; 0x1c0 <_Z20I2C_Master_Transmmitc+0x4>
 1c4:	00 c0       	rjmp	.+0      	; 0x1c6 <_Z20I2C_Master_Transmmitc+0xa>
 1c6:	00 00       	nop
 1c8:	80 93 bb 00 	sts	0x00BB, r24	; 0x8000bb <__TEXT_REGION_LENGTH__+0x7f80bb>
 1cc:	84 e8       	ldi	r24, 0x84	; 132
 1ce:	80 93 bc 00 	sts	0x00BC, r24	; 0x8000bc <__TEXT_REGION_LENGTH__+0x7f80bc>
 1d2:	80 91 bc 00 	lds	r24, 0x00BC	; 0x8000bc <__TEXT_REGION_LENGTH__+0x7f80bc>
 1d6:	88 23       	and	r24, r24
 1d8:	e4 f7       	brge	.-8      	; 0x1d2 <_Z20I2C_Master_Transmmitc+0x16>
 1da:	0e 94 53 00 	call	0xa6	; 0xa6 <_Z10I2C_statusv>
 1de:	88 32       	cpi	r24, 0x28	; 40
 1e0:	29 f0       	breq	.+10     	; 0x1ec <_Z20I2C_Master_Transmmitc+0x30>
 1e2:	80 33       	cpi	r24, 0x30	; 48
 1e4:	31 f4       	brne	.+12     	; 0x1f2 <_Z20I2C_Master_Transmmitc+0x36>
 1e6:	81 e0       	ldi	r24, 0x01	; 1
 1e8:	90 e0       	ldi	r25, 0x00	; 0
 1ea:	08 95       	ret
 1ec:	80 e0       	ldi	r24, 0x00	; 0
 1ee:	90 e0       	ldi	r25, 0x00	; 0
 1f0:	08 95       	ret
 1f2:	82 e0       	ldi	r24, 0x02	; 2
 1f4:	90 e0       	ldi	r25, 0x00	; 0
 1f6:	08 95       	ret

000001f8 <_Z18I2C_Master_Receiveb>:
 1f8:	88 23       	and	r24, r24
 1fa:	21 f0       	breq	.+8      	; 0x204 <_Z18I2C_Master_Receiveb+0xc>
 1fc:	84 ec       	ldi	r24, 0xC4	; 196
 1fe:	80 93 bc 00 	sts	0x00BC, r24	; 0x8000bc <__TEXT_REGION_LENGTH__+0x7f80bc>
 202:	03 c0       	rjmp	.+6      	; 0x20a <_Z18I2C_Master_Receiveb+0x12>
 204:	84 e8       	ldi	r24, 0x84	; 132
 206:	80 93 bc 00 	sts	0x00BC, r24	; 0x8000bc <__TEXT_REGION_LENGTH__+0x7f80bc>
 20a:	80 91 bc 00 	lds	r24, 0x00BC	; 0x8000bc <__TEXT_REGION_LENGTH__+0x7f80bc>
 20e:	88 23       	and	r24, r24
 210:	e4 f7       	brge	.-8      	; 0x20a <_Z18I2C_Master_Receiveb+0x12>
 212:	0e 94 53 00 	call	0xa6	; 0xa6 <_Z10I2C_statusv>
 216:	80 35       	cpi	r24, 0x50	; 80
 218:	29 f0       	breq	.+10     	; 0x224 <_Z18I2C_Master_Receiveb+0x2c>
 21a:	88 35       	cpi	r24, 0x58	; 88
 21c:	31 f4       	brne	.+12     	; 0x22a <_Z18I2C_Master_Receiveb+0x32>
 21e:	81 e0       	ldi	r24, 0x01	; 1
 220:	90 e0       	ldi	r25, 0x00	; 0
 222:	08 95       	ret
 224:	80 e0       	ldi	r24, 0x00	; 0
 226:	90 e0       	ldi	r25, 0x00	; 0
 228:	08 95       	ret
 22a:	82 e0       	ldi	r24, 0x02	; 2
 22c:	90 e0       	ldi	r25, 0x00	; 0
 22e:	08 95       	ret

00000230 <_Z7TWIStopv>:
 230:	84 e9       	ldi	r24, 0x94	; 148
 232:	80 93 bc 00 	sts	0x00BC, r24	; 0x8000bc <__TEXT_REGION_LENGTH__+0x7f80bc>
 236:	80 91 bc 00 	lds	r24, 0x00BC	; 0x8000bc <__TEXT_REGION_LENGTH__+0x7f80bc>
 23a:	84 fd       	sbrc	r24, 4
 23c:	fc cf       	rjmp	.-8      	; 0x236 <_Z7TWIStopv+0x6>
 23e:	08 95       	ret

00000240 <_Z6actionc>:


void action(char data){
	if(data == 0x51){
 240:	81 35       	cpi	r24, 0x51	; 81
 242:	19 f4       	brne	.+6      	; 0x24a <_Z6actionc+0xa>
		PORTC |= (1<<0);//<================LED
 244:	98 b1       	in	r25, 0x08	; 8
 246:	91 60       	ori	r25, 0x01	; 1
 248:	98 b9       	out	0x08, r25	; 8
	}
	if(data == 0x31){
 24a:	81 33       	cpi	r24, 0x31	; 49
 24c:	19 f4       	brne	.+6      	; 0x254 <_Z6actionc+0x14>
		PORTC |= (1<<1);//<================LED
 24e:	98 b1       	in	r25, 0x08	; 8
 250:	92 60       	ori	r25, 0x02	; 2
 252:	98 b9       	out	0x08, r25	; 8
	}
	if(data == 0x41){
 254:	81 34       	cpi	r24, 0x41	; 65
 256:	31 f4       	brne	.+12     	; 0x264 <_Z6actionc+0x24>
		PORTC &= ~(1<<0);//<================LED
 258:	88 b1       	in	r24, 0x08	; 8
 25a:	8e 7f       	andi	r24, 0xFE	; 254
 25c:	88 b9       	out	0x08, r24	; 8
		PORTC &= ~(1<<1);//<================LED
 25e:	88 b1       	in	r24, 0x08	; 8
 260:	8d 7f       	andi	r24, 0xFD	; 253
 262:	88 b9       	out	0x08, r24	; 8
 264:	08 95       	ret

00000266 <main>:
	}
}

int main(void)
{
 266:	cf 93       	push	r28
 268:	df 93       	push	r29
 26a:	00 d0       	rcall	.+0      	; 0x26c <main+0x6>
 26c:	00 d0       	rcall	.+0      	; 0x26e <main+0x8>
 26e:	1f 92       	push	r1
 270:	cd b7       	in	r28, 0x3d	; 61
 272:	de b7       	in	r29, 0x3e	; 62
	/* initialiser le master I2C */
	TWIInit();
 274:	0e 94 57 00 	call	0xae	; 0xae <_Z7TWIInitv>
	/* mettre les deux portes pour LED en sortie */
	DDRC |= (1<<0)|(1<<1);
 278:	87 b1       	in	r24, 0x07	; 7
 27a:	83 60       	ori	r24, 0x03	; 3
 27c:	87 b9       	out	0x07, r24	; 7
	/* test de lumière pour confirmer */
	Blink();
 27e:	0e 94 60 00 	call	0xc0	; 0xc0 <_Z5Blinkv>
   
   
	/* pour envoyer plusieurs char test */
	char master_data[] = {0x55,0x33,0x44,0x22,0x11};
 282:	85 e0       	ldi	r24, 0x05	; 5
 284:	e2 e0       	ldi	r30, 0x02	; 2
 286:	f1 e0       	ldi	r31, 0x01	; 1
 288:	de 01       	movw	r26, r28
 28a:	11 96       	adiw	r26, 0x01	; 1
 28c:	01 90       	ld	r0, Z+
 28e:	0d 92       	st	X+, r0
 290:	8a 95       	dec	r24
 292:	e1 f7       	brne	.-8      	; 0x28c <main+0x26>
	//int status = TWISlave_Address(SLave_Address1_Read);
   
   while (1)
   {
	   //PORTC |= (1<<1);
	 switch(TWISlave_Address(Slave_Address[Mode])){
 294:	e0 91 08 01 	lds	r30, 0x0108	; 0x800108 <__data_end>
 298:	f0 91 09 01 	lds	r31, 0x0109	; 0x800109 <__data_end+0x1>
 29c:	e0 50       	subi	r30, 0x00	; 0
 29e:	ff 4f       	sbci	r31, 0xFF	; 255
 2a0:	80 81       	ld	r24, Z
 2a2:	0e 94 86 00 	call	0x10c	; 0x10c <_Z16TWISlave_Addressh>
 2a6:	83 30       	cpi	r24, 0x03	; 3
 2a8:	91 05       	cpc	r25, r1
 2aa:	81 f1       	breq	.+96     	; 0x30c <main+0xa6>
 2ac:	34 f4       	brge	.+12     	; 0x2ba <main+0x54>
 2ae:	81 30       	cpi	r24, 0x01	; 1
 2b0:	91 05       	cpc	r25, r1
 2b2:	69 f0       	breq	.+26     	; 0x2ce <main+0x68>
 2b4:	02 97       	sbiw	r24, 0x02	; 2
 2b6:	21 f1       	breq	.+72     	; 0x300 <main+0x9a>
 2b8:	59 c0       	rjmp	.+178    	; 0x36c <main+0x106>
 2ba:	85 30       	cpi	r24, 0x05	; 5
 2bc:	91 05       	cpc	r25, r1
 2be:	09 f4       	brne	.+2      	; 0x2c2 <main+0x5c>
 2c0:	51 c0       	rjmp	.+162    	; 0x364 <main+0xfe>
 2c2:	0c f4       	brge	.+2      	; 0x2c6 <main+0x60>
 2c4:	47 c0       	rjmp	.+142    	; 0x354 <main+0xee>
 2c6:	06 97       	sbiw	r24, 0x06	; 6
 2c8:	09 f4       	brne	.+2      	; 0x2cc <main+0x66>
 2ca:	4e c0       	rjmp	.+156    	; 0x368 <main+0x102>
 2cc:	4f c0       	rjmp	.+158    	; 0x36c <main+0x106>
 2ce:	00 e0       	ldi	r16, 0x00	; 0
 2d0:	10 e0       	ldi	r17, 0x00	; 0
		 }
		 case 1:{
			 //ShortBlink(1);
			 //PORTC |= (1<<0);//<================LED
			 // cest ici que tu vas mettre le loop pour transferer des données if tu recoi le ack a chaque fois
			 for (int i=0;i<4;i++){
 2d2:	04 30       	cpi	r16, 0x04	; 4
 2d4:	11 05       	cpc	r17, r1
 2d6:	8c f4       	brge	.+34     	; 0x2fa <main+0x94>
				 //PORTC |= (1<<1);//<================LED
				 int status = I2C_Master_Transmmit(master_data[i]);
 2d8:	e1 e0       	ldi	r30, 0x01	; 1
 2da:	f0 e0       	ldi	r31, 0x00	; 0
 2dc:	ec 0f       	add	r30, r28
 2de:	fd 1f       	adc	r31, r29
 2e0:	e0 0f       	add	r30, r16
 2e2:	f1 1f       	adc	r31, r17
 2e4:	80 81       	ld	r24, Z
 2e6:	0e 94 de 00 	call	0x1bc	; 0x1bc <_Z20I2C_Master_Transmmitc>
				 //PORTC |= (1<<1);//<================LED	!!!la fonction arret ici
				 
				 if (status == 0){
 2ea:	00 97       	sbiw	r24, 0x00	; 0
 2ec:	19 f0       	breq	.+6      	; 0x2f4 <main+0x8e>
					 //ShortBlink(1);
					 continue; //ack a été recu
				 }
				 if (status == 1 || status == 2){
 2ee:	01 97       	sbiw	r24, 0x01	; 1
 2f0:	02 97       	sbiw	r24, 0x02	; 2
 2f2:	18 f0       	brcs	.+6      	; 0x2fa <main+0x94>
		 }
		 case 1:{
			 //ShortBlink(1);
			 //PORTC |= (1<<0);//<================LED
			 // cest ici que tu vas mettre le loop pour transferer des données if tu recoi le ack a chaque fois
			 for (int i=0;i<4;i++){
 2f4:	0f 5f       	subi	r16, 0xFF	; 255
 2f6:	1f 4f       	sbci	r17, 0xFF	; 255
 2f8:	ec cf       	rjmp	.-40     	; 0x2d2 <main+0x6c>
					 //PORTC |= (1<<1);//<================LED
					 continue; //il y a d'autre state non utilisé pour l'instant ou something else que ack ou nack est arrivé
				 }
			 }
			 //PORTC |= (1<<1);//<================LED
			 TWIStop();
 2fa:	0e 94 18 01 	call	0x230	; 0x230 <_Z7TWIStopv>
			 //PORTC |= (1<<1);//<================LED
			 break;
 2fe:	36 c0       	rjmp	.+108    	; 0x36c <main+0x106>
		 }
		 case 2:{
			 //PORTC |= (1<<0);//<================LED
			 I2C_Master_Transmmit(0x11); //only write once cuz recu nack
 300:	81 e1       	ldi	r24, 0x11	; 17
 302:	0e 94 de 00 	call	0x1bc	; 0x1bc <_Z20I2C_Master_Transmmitc>
			 TWIStop();
 306:	0e 94 18 01 	call	0x230	; 0x230 <_Z7TWIStopv>
			 break;
 30a:	30 c0       	rjmp	.+96     	; 0x36c <main+0x106>
	//int status = TWISlave_Address(SLave_Address1_Read);
   
   while (1)
   {
	   //PORTC |= (1<<1);
	 switch(TWISlave_Address(Slave_Address[Mode])){
 30c:	11 e0       	ldi	r17, 0x01	; 1
		 }
		 case 3:{
			 //PORTC |= (1<<0);//<================LED
			 while (1){
				 
				 int status = I2C_Master_Receive(ack);
 30e:	81 2f       	mov	r24, r17
 310:	0e 94 fc 00 	call	0x1f8	; 0x1f8 <_Z18I2C_Master_Receiveb>
				 //PORTC |= (1<<0);
				 if(TWDR == 0x41){
 314:	20 91 bb 00 	lds	r18, 0x00BB	; 0x8000bb <__TEXT_REGION_LENGTH__+0x7f80bb>
 318:	21 34       	cpi	r18, 0x41	; 65
 31a:	09 f4       	brne	.+2      	; 0x31e <main+0xb8>
					 ack=false;
 31c:	10 e0       	ldi	r17, 0x00	; 0
				 }
				 if (TWDR == 0x21){
 31e:	20 91 bb 00 	lds	r18, 0x00BB	; 0x8000bb <__TEXT_REGION_LENGTH__+0x7f80bb>
 322:	21 32       	cpi	r18, 0x21	; 33
 324:	19 f4       	brne	.+6      	; 0x32c <main+0xc6>
					 //PORTC |= (1<<0);//<================LED
					 TWIStop(); //cuz cest le master qui send un stop condition au slave
 326:	0e 94 18 01 	call	0x230	; 0x230 <_Z7TWIStopv>
					 break;
 32a:	20 c0       	rjmp	.+64     	; 0x36c <main+0x106>
				 }
				 if (status == 0){ //data recieved + ack sent
 32c:	00 97       	sbiw	r24, 0x00	; 0
 32e:	29 f4       	brne	.+10     	; 0x33a <main+0xd4>
					 //ShortBlink(2);
					 data = TWDR;
 330:	80 91 bb 00 	lds	r24, 0x00BB	; 0x8000bb <__TEXT_REGION_LENGTH__+0x7f80bb>
					 action(data);
 334:	0e 94 20 01 	call	0x240	; 0x240 <_Z6actionc>
					 continue;
 338:	ea cf       	rjmp	.-44     	; 0x30e <main+0xa8>
				 }
				 if (status == 1){ //data recieved + nack sent
 33a:	81 30       	cpi	r24, 0x01	; 1
 33c:	91 05       	cpc	r25, r1
 33e:	29 f4       	brne	.+10     	; 0x34a <main+0xe4>
					 //ShortBlink(2);
					 data = TWDR;
 340:	80 91 bb 00 	lds	r24, 0x00BB	; 0x8000bb <__TEXT_REGION_LENGTH__+0x7f80bb>
					 action(data);
 344:	0e 94 20 01 	call	0x240	; 0x240 <_Z6actionc>
					 break;
 348:	11 c0       	rjmp	.+34     	; 0x36c <main+0x106>
				 }
				 if (status == 2){
 34a:	02 97       	sbiw	r24, 0x02	; 2
 34c:	01 f7       	brne	.-64     	; 0x30e <main+0xa8>
					 Blink();
 34e:	0e 94 60 00 	call	0xc0	; 0xc0 <_Z5Blinkv>
					 break;
 352:	0c c0       	rjmp	.+24     	; 0x36c <main+0x106>
			 break; //break est necessaire cuz sinon le switch case va juste passer au next case quand il finit avec le current case
		 }
		 case 4:{
			 //PORTC |= (1<<0);//<================LED
			 ack = false;
			 I2C_Master_Receive(ack);
 354:	80 e0       	ldi	r24, 0x00	; 0
 356:	0e 94 fc 00 	call	0x1f8	; 0x1f8 <_Z18I2C_Master_Receiveb>
			 data = TWDR;
 35a:	80 91 bb 00 	lds	r24, 0x00BB	; 0x8000bb <__TEXT_REGION_LENGTH__+0x7f80bb>
			 action(data);
 35e:	0e 94 20 01 	call	0x240	; 0x240 <_Z6actionc>
			 break;
 362:	04 c0       	rjmp	.+8      	; 0x36c <main+0x106>
		 }
		 case 5:{
			 Blink();//ici tout va mal le I2C reconnait aucune operation
 364:	0e 94 60 00 	call	0xc0	; 0xc0 <_Z5Blinkv>
		 }
		 case 6:{
			 Blink();
 368:	0e 94 60 00 	call	0xc0	; 0xc0 <_Z5Blinkv>
	 //_delay_ms(10);
	 /* initialiser le master I2C */
	 //TWIInit();
	 ack=true;
	 data = 0x00;//<================================================ICI MEGA IMPORTANT SINON RIEN FONCTION PLUSIEURS FOIS DE SUITE cuz il garde la valeur 0x22 donc quand il re-embarque dans le loop il a la valeur de 0x22 donc il exit et re enter de suite en loop
	 if (Mode == 0){
 36c:	80 91 08 01 	lds	r24, 0x0108	; 0x800108 <__data_end>
 370:	90 91 09 01 	lds	r25, 0x0109	; 0x800109 <__data_end+0x1>
 374:	89 2b       	or	r24, r25
 376:	39 f4       	brne	.+14     	; 0x386 <main+0x120>
		 Mode = 1;
 378:	81 e0       	ldi	r24, 0x01	; 1
 37a:	90 e0       	ldi	r25, 0x00	; 0
 37c:	90 93 09 01 	sts	0x0109, r25	; 0x800109 <__data_end+0x1>
 380:	80 93 08 01 	sts	0x0108, r24	; 0x800108 <__data_end>
 384:	87 cf       	rjmp	.-242    	; 0x294 <main+0x2e>
		 } else {
		 Mode = 0;
 386:	10 92 09 01 	sts	0x0109, r1	; 0x800109 <__data_end+0x1>
 38a:	10 92 08 01 	sts	0x0108, r1	; 0x800108 <__data_end>
 38e:	82 cf       	rjmp	.-252    	; 0x294 <main+0x2e>

00000390 <_exit>:
 390:	f8 94       	cli

00000392 <__stop_program>:
 392:	ff cf       	rjmp	.-2      	; 0x392 <__stop_program>
